target datalayout = "e-m:e-p270:32:32-p271:32:32-p272:64:64-i64:64-i128:128-f80:128-n8:16:32:64-S128"
target triple = "x86_64-pc-linux-gnu"

%struct._object = type { %union.anon, ptr }
%union.anon = type { i64 }

@_Py_NoneStruct = external global %struct._object, align 8

; Function Attrs: nounwind uwtable
define internal ptr @var_heaptype_set_data_to_3s(ptr noundef %0, ptr noundef %1, ptr noundef %2, i64 noundef %3, ptr noundef %4) #0 {
  %6 = alloca ptr, align 8
  %7 = alloca ptr, align 8
  %8 = alloca ptr, align 8
  %9 = alloca ptr, align 8
  %10 = alloca i64, align 8
  %11 = alloca ptr, align 8
  %12 = alloca ptr, align 8
  %13 = alloca i32, align 4
  %14 = alloca i64, align 8
  store ptr %0, ptr %7, align 8, !tbaa !3
  store ptr %1, ptr %8, align 8, !tbaa !20
  store ptr %2, ptr %9, align 8, !tbaa !22
  store i64 %3, ptr %10, align 8, !tbaa !18
  store ptr %4, ptr %11, align 8, !tbaa !3
  call void @llvm.lifetime.start.p0(i64 8, ptr %12) #7
  %15 = load ptr, ptr %7, align 8, !tbaa !3
  %16 = load ptr, ptr %8, align 8, !tbaa !20
  %17 = call ptr @PyObject_GetTypeData(ptr noundef %15, ptr noundef %16)
  store ptr %17, ptr %12, align 8, !tbaa !24
  %18 = load ptr, ptr %12, align 8, !tbaa !24
  %19 = icmp ne ptr %18, null
  br i1 %19, label %21, label %20

20:                                               ; preds = %5
  store ptr null, ptr %6, align 8
  store i32 1, ptr %13, align 4
  br label %31

21:                                               ; preds = %5
  call void @llvm.lifetime.start.p0(i64 8, ptr %14) #7
  %22 = load ptr, ptr %8, align 8, !tbaa !20
  %23 = call i64 @PyType_GetTypeDataSize(ptr noundef %22)
  store i64 %23, ptr %14, align 8, !tbaa !18
  %24 = load i64, ptr %14, align 8, !tbaa !18
  %25 = icmp slt i64 %24, 0
  br i1 %25, label %26, label %27

26:                                               ; preds = %21
  store ptr null, ptr %6, align 8
  store i32 1, ptr %13, align 4
  br label %30

27:                                               ; preds = %21
  %28 = load ptr, ptr %12, align 8, !tbaa !24
  %29 = load i64, ptr %14, align 8, !tbaa !18
  call void @llvm.memset.p0.i64(ptr align 1 %28, i8 3, i64 %29, i1 false)
  store ptr @_Py_NoneStruct, ptr %6, align 8
  store i32 1, ptr %13, align 4
  br label %30

30:                                               ; preds = %27, %26
  call void @llvm.lifetime.end.p0(i64 8, ptr %14) #7
  br label %31

31:                                               ; preds = %30, %20
  call void @llvm.lifetime.end.p0(i64 8, ptr %12) #7
  %32 = load ptr, ptr %6, align 8
  ret ptr %32
}