; Function Attrs: nounwind uwtable
define internal noundef ptr @var_heaptype_set_data_to_3s(ptr noundef %0, ptr noundef %1, ptr readnone captures(none) %2, i64 %3, ptr readnone captures(none) %4) #0 {
  %6 = tail call ptr @PyObject_GetTypeData(ptr noundef %0, ptr noundef %1) #8
  %.not = icmp eq ptr %6, null
  br i1 %.not, label %11, label %7

7:                                                ; preds = %5
  %8 = tail call i64 @PyType_GetTypeDataSize(ptr noundef %1) #8
  %9 = icmp slt i64 %8, 0
  br i1 %9, label %11, label %10

10:                                               ; preds = %7
  tail call void @llvm.memset.p0.i64(ptr nonnull align 1 %6, i8 3, i64 %8, i1 false)
  br label %11

11:                                               ; preds = %10, %7, %5
  %.0 = phi ptr [ null, %5 ], [ @_Py_NoneStruct, %10 ], [ null, %7 ]
  ret ptr %.0
}